target datalayout = "e-m:e-p270:32:32-p271:32:32-p272:64:64-i64:64-i128:128-f80:128-n8:16:32:64-S128"
target triple = "x86_64-pc-linux-gnu"

; Function Attrs: mustprogress nounwind uwtable
define noundef i32 @_ZN8triggers17mcontrol_common_t14legalize_matchEmm(i64 noundef %0, i64 noundef %1) #4 align 2 {
  %3 = alloca i32, align 4
  %4 = alloca i64, align 8
  %5 = alloca i64, align 8
  store i64 %0, ptr %4, align 8, !tbaa !16
  store i64 %1, ptr %5, align 8, !tbaa !16
  %6 = load i64, ptr %4, align 8, !tbaa !16
  switch i64 %6, label %15 [
    i64 1, label %7
    i64 0, label %12
    i64 2, label %12
    i64 3, label %12
    i64 4, label %12
    i64 5, label %12
  ]

7:                                                ; preds = %2
  %8 = load i64, ptr %5, align 8, !tbaa !16
  %9 = icmp eq i64 %8, 0
  br i1 %9, label %10, label %11

10:                                               ; preds = %7
  store i32 0, ptr %3, align 4
  br label %16

11:                                               ; preds = %7
  br label %12

12:                                               ; preds = %2, %2, %2, %2, %2, %11
  %13 = load i64, ptr %4, align 8, !tbaa !16
  %14 = trunc i64 %13 to i32
  store i32 %14, ptr %3, align 4
  br label %16

15:                                               ; preds = %2
  store i32 0, ptr %3, align 4
  br label %16

16:                                               ; preds = %15, %12, %10
  %17 = load i32, ptr %3, align 4
  ret i32 %17
}