; Function Attrs: mustprogress nofree norecurse nosync nounwind willreturn memory(none) uwtable
define noundef range(i32 0, 6) i32 @_ZN8triggers17mcontrol_common_t14legalize_matchEmm(i64 noundef %0, i64 noundef %1) local_unnamed_addr #5 align 2 {
  switch i64 %0, label %7 [
    i64 1, label %3
    i64 0, label %5
    i64 2, label %5
    i64 3, label %5
    i64 4, label %5
    i64 5, label %5
  ]

3:                                                ; preds = %2
  %4 = icmp eq i64 %1, 0
  br i1 %4, label %7, label %5

5:                                                ; preds = %3, %2, %2, %2, %2, %2
  %6 = trunc i64 %0 to i32
  br label %7

7:                                                ; preds = %2, %3, %5
  %.0 = phi i32 [ %6, %5 ], [ 0, %3 ], [ 0, %2 ]
  ret i32 %.0
}